; Function Attrs: mustprogress uwtable
define void @_ZN18duckdb_fastpforlib8internal14__fastunpack36EPKjPm(ptr noalias noundef %0, ptr noalias noundef initializes((0, 40)) %1) local_unnamed_addr #5 {
  %3 = alloca ptr, align 8
  tail call void @llvm.experimental.noalias.scope.decl(metadata !7751)
  tail call void @llvm.experimental.noalias.scope.decl(metadata !7754)
  %4 = load i32, ptr %0, align 4, !tbaa !7, !noalias !7757
  %5 = zext i32 %4 to i64
  %6 = getelementptr inbounds nuw i8, ptr %0, i64 4
  %7 = load i32, ptr %6, align 4, !tbaa !7, !noalias !7757
  %8 = and i32 %7, 15
  %9 = zext nneg i32 %8 to i64
  %10 = shl nuw nsw i64 %9, 32
  %11 = or disjoint i64 %10, %5
  store i64 %11, ptr %1, align 8, !tbaa !9, !alias.scope !7757
  tail call void @llvm.experimental.noalias.scope.decl(metadata !7758)
  %12 = getelementptr inbounds nuw i8, ptr %1, i64 8
  tail call void @llvm.experimental.noalias.scope.decl(metadata !7761)
  %13 = lshr i32 %7, 4
  %14 = zext nneg i32 %13 to i64
  %15 = getelementptr inbounds nuw i8, ptr %0, i64 8
  %16 = load i32, ptr %15, align 4, !tbaa !7, !noalias !7764
  %17 = and i32 %16, 255
  %18 = zext nneg i32 %17 to i64
  %19 = shl nuw nsw i64 %18, 28
  %20 = or disjoint i64 %19, %14
  store i64 %20, ptr %12, align 8, !tbaa !9, !alias.scope !7764
  tail call void @llvm.experimental.noalias.scope.decl(metadata !7765)
  %21 = getelementptr inbounds nuw i8, ptr %1, i64 16
  tail call void @llvm.experimental.noalias.scope.decl(metadata !7768)
  %22 = lshr i32 %16, 8
  %23 = zext nneg i32 %22 to i64
  %24 = getelementptr inbounds nuw i8, ptr %0, i64 12
  %25 = load i32, ptr %24, align 4, !tbaa !7, !noalias !7771
  %26 = and i32 %25, 4095
  %27 = zext nneg i32 %26 to i64
  %28 = shl nuw nsw i64 %27, 24
  %29 = or disjoint i64 %28, %23
  store i64 %29, ptr %21, align 8, !tbaa !9, !alias.scope !7771
  tail call void @llvm.experimental.noalias.scope.decl(metadata !7772)
  %30 = getelementptr inbounds nuw i8, ptr %1, i64 24
  tail call void @llvm.experimental.noalias.scope.decl(metadata !7775)
  %31 = lshr i32 %25, 12
  %32 = zext nneg i32 %31 to i64
  %33 = getelementptr inbounds nuw i8, ptr %0, i64 16
  %34 = load i32, ptr %33, align 4, !tbaa !7, !noalias !7778
  %35 = and i32 %34, 65535
  %36 = zext nneg i32 %35 to i64
  %37 = shl nuw nsw i64 %36, 20
  %38 = or disjoint i64 %37, %32
  store i64 %38, ptr %30, align 8, !tbaa !9, !alias.scope !7778
  tail call void @llvm.experimental.noalias.scope.decl(metadata !7779)
  %39 = getelementptr inbounds nuw i8, ptr %1, i64 32
  tail call void @llvm.experimental.noalias.scope.decl(metadata !7782)
  %40 = lshr i32 %34, 16
  %41 = zext nneg i32 %40 to i64
  %42 = getelementptr inbounds nuw i8, ptr %0, i64 20
  store ptr %42, ptr %3, align 8, !tbaa !1879, !noalias !7785
  %43 = load i32, ptr %42, align 4, !tbaa !7, !noalias !7785
  %44 = and i32 %43, 1048575
  %45 = zext nneg i32 %44 to i64
  %46 = shl nuw nsw i64 %45, 16
  %47 = or disjoint i64 %46, %41
  store i64 %47, ptr %39, align 8, !tbaa !9, !alias.scope !7785
  call void @_ZN18duckdb_fastpforlib8internal8UnrollerILt36ELt5EE6UnpackERrPKjPm(ptr noundef nonnull align 8 dereferenceable(8) %3, ptr noundef nonnull %1)
  ret void
}